#include <math.h>
#include <stdio.h>
#include <stdlib.h>
#include <string.h>

void main()
{
	int i,n,j,m,l,a[500]={0},b[500]={0},max=0;
	char c[500][10]={"\0"},t,s[501];
	scanf("%d%s",&n,s);
	for(i=0;s[i];i++)
		for(j=0;j<n;j++)
			c[i][j]=s[i+j];
	l=strlen(s)-n+1;
	for(i=0;i<l;i++)
		b[i]=1;
	for(i=1;i<l;i++)
		for(j=0;j<i;j++)
			if(b[i])
				if(strcmp(c[i],c[j])==0)
			{
				a[j]++;
				b[i]=0;
			}
	for(i=0;i<l;i++)
		if(a[i]>max)
			max=a[i];
	if(max==0)
		printf("NO\n");
	else
	{
		printf("%d\n",max+1);
		for(i=0;i<l;i++)
	    	if(a[i]==max)
				printf("%s\n",c[i]);
	}
}
