target datalayout = "e-m:e-p270:32:32-p271:32:32-p272:64:64-i64:64-f80:128-n8:16:32:64-S128"
target triple = "x86_64-pc-linux-gnu"

@.str = private unnamed_addr constant [5 x i8] c"%d%s\00", align 1
@.str.1 = private unnamed_addr constant [4 x i8] c"NO\0A\00", align 1
@.str.2 = private unnamed_addr constant [4 x i8] c"%d\0A\00", align 1
@.str.3 = private unnamed_addr constant [4 x i8] c"%s\0A\00", align 1

; Function Attrs: noinline nounwind uwtable
define dso_local void @main() #0 {
  %1 = alloca i32, align 4
  %2 = alloca i32, align 4
  %3 = alloca i32, align 4
  %4 = alloca i32, align 4
  %5 = alloca i32, align 4
  %6 = alloca [500 x i32], align 16
  %7 = alloca [500 x i32], align 16
  %8 = alloca i32, align 4
  %9 = alloca [500 x [10 x i8]], align 16
  %10 = alloca i8, align 1
  %11 = alloca [501 x i8], align 16
  %12 = bitcast [500 x i32]* %6 to i8*
  call void @llvm.memset.p0i8.i64(i8* align 16 %12, i8 0, i64 2000, i1 false)
  %13 = bitcast [500 x i32]* %7 to i8*
  call void @llvm.memset.p0i8.i64(i8* align 16 %13, i8 0, i64 2000, i1 false)
  store i32 0, i32* %8, align 4
  %14 = bitcast [500 x [10 x i8]]* %9 to i8*
  call void @llvm.memset.p0i8.i64(i8* align 16 %14, i8 0, i64 5000, i1 false)
  %15 = getelementptr inbounds [501 x i8], [501 x i8]* %11, i64 0, i64 0
  %16 = call i32 (i8*, ...) @__isoc99_scanf(i8* getelementptr inbounds ([5 x i8], [5 x i8]* @.str, i64 0, i64 0), i32* %2, i8* %15)
  store i32 0, i32* %1, align 4
  br label %17

17:                                               ; preds = %45, %0
  %18 = load i32, i32* %1, align 4
  %19 = sext i32 %18 to i64
  %20 = getelementptr inbounds [501 x i8], [501 x i8]* %11, i64 0, i64 %19
  %21 = load i8, i8* %20, align 1
  %22 = icmp ne i8 %21, 0
  br i1 %22, label %23, label %48

23:                                               ; preds = %17
  store i32 0, i32* %3, align 4
  br label %24

24:                                               ; preds = %41, %23
  %25 = load i32, i32* %3, align 4
  %26 = load i32, i32* %2, align 4
  %27 = icmp slt i32 %25, %26
  br i1 %27, label %28, label %44

28:                                               ; preds = %24
  %29 = load i32, i32* %1, align 4
  %30 = load i32, i32* %3, align 4
  %31 = add nsw i32 %29, %30
  %32 = sext i32 %31 to i64
  %33 = getelementptr inbounds [501 x i8], [501 x i8]* %11, i64 0, i64 %32
  %34 = load i8, i8* %33, align 1
  %35 = load i32, i32* %1, align 4
  %36 = sext i32 %35 to i64
  %37 = getelementptr inbounds [500 x [10 x i8]], [500 x [10 x i8]]* %9, i64 0, i64 %36
  %38 = load i32, i32* %3, align 4
  %39 = sext i32 %38 to i64
  %40 = getelementptr inbounds [10 x i8], [10 x i8]* %37, i64 0, i64 %39
  store i8 %34, i8* %40, align 1
  br label %41

41:                                               ; preds = %28
  %42 = load i32, i32* %3, align 4
  %43 = add nsw i32 %42, 1
  store i32 %43, i32* %3, align 4
  br label %24

44:                                               ; preds = %24
  br label %45

45:                                               ; preds = %44
  %46 = load i32, i32* %1, align 4
  %47 = add nsw i32 %46, 1
  store i32 %47, i32* %1, align 4
  br label %17

48:                                               ; preds = %17
  %49 = getelementptr inbounds [501 x i8], [501 x i8]* %11, i64 0, i64 0
  %50 = call i64 @strlen(i8* %49) #4
  %51 = load i32, i32* %2, align 4
  %52 = sext i32 %51 to i64
  %53 = sub i64 %50, %52
  %54 = add i64 %53, 1
  %55 = trunc i64 %54 to i32
  store i32 %55, i32* %5, align 4
  store i32 0, i32* %1, align 4
  br label %56

56:                                               ; preds = %64, %48
  %57 = load i32, i32* %1, align 4
  %58 = load i32, i32* %5, align 4
  %59 = icmp slt i32 %57, %58
  br i1 %59, label %60, label %67

60:                                               ; preds = %56
  %61 = load i32, i32* %1, align 4
  %62 = sext i32 %61 to i64
  %63 = getelementptr inbounds [500 x i32], [500 x i32]* %7, i64 0, i64 %62
  store i32 1, i32* %63, align 4
  br label %64

64:                                               ; preds = %60
  %65 = load i32, i32* %1, align 4
  %66 = add nsw i32 %65, 1
  store i32 %66, i32* %1, align 4
  br label %56

67:                                               ; preds = %56
  store i32 1, i32* %1, align 4
  br label %68

68:                                               ; preds = %109, %67
  %69 = load i32, i32* %1, align 4
  %70 = load i32, i32* %5, align 4
  %71 = icmp slt i32 %69, %70
  br i1 %71, label %72, label %112

72:                                               ; preds = %68
  store i32 0, i32* %3, align 4
  br label %73

73:                                               ; preds = %105, %72
  %74 = load i32, i32* %3, align 4
  %75 = load i32, i32* %1, align 4
  %76 = icmp slt i32 %74, %75
  br i1 %76, label %77, label %108

77:                                               ; preds = %73
  %78 = load i32, i32* %1, align 4
  %79 = sext i32 %78 to i64
  %80 = getelementptr inbounds [500 x i32], [500 x i32]* %7, i64 0, i64 %79
  %81 = load i32, i32* %80, align 4
  %82 = icmp ne i32 %81, 0
  br i1 %82, label %83, label %104

83:                                               ; preds = %77
  %84 = load i32, i32* %1, align 4
  %85 = sext i32 %84 to i64
  %86 = getelementptr inbounds [500 x [10 x i8]], [500 x [10 x i8]]* %9, i64 0, i64 %85
  %87 = getelementptr inbounds [10 x i8], [10 x i8]* %86, i64 0, i64 0
  %88 = load i32, i32* %3, align 4
  %89 = sext i32 %88 to i64
  %90 = getelementptr inbounds [500 x [10 x i8]], [500 x [10 x i8]]* %9, i64 0, i64 %89
  %91 = getelementptr inbounds [10 x i8], [10 x i8]* %90, i64 0, i64 0
  %92 = call i32 @strcmp(i8* %87, i8* %91) #4
  %93 = icmp eq i32 %92, 0
  br i1 %93, label %94, label %103

94:                                               ; preds = %83
  %95 = load i32, i32* %3, align 4
  %96 = sext i32 %95 to i64
  %97 = getelementptr inbounds [500 x i32], [500 x i32]* %6, i64 0, i64 %96
  %98 = load i32, i32* %97, align 4
  %99 = add nsw i32 %98, 1
  store i32 %99, i32* %97, align 4
  %100 = load i32, i32* %1, align 4
  %101 = sext i32 %100 to i64
  %102 = getelementptr inbounds [500 x i32], [500 x i32]* %7, i64 0, i64 %101
  store i32 0, i32* %102, align 4
  br label %103

103:                                              ; preds = %94, %83
  br label %104

104:                                              ; preds = %103, %77
  br label %105

105:                                              ; preds = %104
  %106 = load i32, i32* %3, align 4
  %107 = add nsw i32 %106, 1
  store i32 %107, i32* %3, align 4
  br label %73

108:                                              ; preds = %73
  br label %109

109:                                              ; preds = %108
  %110 = load i32, i32* %1, align 4
  %111 = add nsw i32 %110, 1
  store i32 %111, i32* %1, align 4
  br label %68

112:                                              ; preds = %68
  store i32 0, i32* %1, align 4
  br label %113

113:                                              ; preds = %130, %112
  %114 = load i32, i32* %1, align 4
  %115 = load i32, i32* %5, align 4
  %116 = icmp slt i32 %114, %115
  br i1 %116, label %117, label %133

117:                                              ; preds = %113
  %118 = load i32, i32* %1, align 4
  %119 = sext i32 %118 to i64
  %120 = getelementptr inbounds [500 x i32], [500 x i32]* %6, i64 0, i64 %119
  %121 = load i32, i32* %120, align 4
  %122 = load i32, i32* %8, align 4
  %123 = icmp sgt i32 %121, %122
  br i1 %123, label %124, label %129

124:                                              ; preds = %117
  %125 = load i32, i32* %1, align 4
  %126 = sext i32 %125 to i64
  %127 = getelementptr inbounds [500 x i32], [500 x i32]* %6, i64 0, i64 %126
  %128 = load i32, i32* %127, align 4
  store i32 %128, i32* %8, align 4
  br label %129

129:                                              ; preds = %124, %117
  br label %130

130:                                              ; preds = %129
  %131 = load i32, i32* %1, align 4
  %132 = add nsw i32 %131, 1
  store i32 %132, i32* %1, align 4
  br label %113

133:                                              ; preds = %113
  %134 = load i32, i32* %8, align 4
  %135 = icmp eq i32 %134, 0
  br i1 %135, label %136, label %138

136:                                              ; preds = %133
  %137 = call i32 (i8*, ...) @printf(i8* getelementptr inbounds ([4 x i8], [4 x i8]* @.str.1, i64 0, i64 0))
  br label %164

138:                                              ; preds = %133
  %139 = load i32, i32* %8, align 4
  %140 = add nsw i32 %139, 1
  %141 = call i32 (i8*, ...) @printf(i8* getelementptr inbounds ([4 x i8], [4 x i8]* @.str.2, i64 0, i64 0), i32 %140)
  store i32 0, i32* %1, align 4
  br label %142

142:                                              ; preds = %160, %138
  %143 = load i32, i32* %1, align 4
  %144 = load i32, i32* %5, align 4
  %145 = icmp slt i32 %143, %144
  br i1 %145, label %146, label %163

146:                                              ; preds = %142
  %147 = load i32, i32* %1, align 4
  %148 = sext i32 %147 to i64
  %149 = getelementptr inbounds [500 x i32], [500 x i32]* %6, i64 0, i64 %148
  %150 = load i32, i32* %149, align 4
  %151 = load i32, i32* %8, align 4
  %152 = icmp eq i32 %150, %151
  br i1 %152, label %153, label %159

153:                                              ; preds = %146
  %154 = load i32, i32* %1, align 4
  %155 = sext i32 %154 to i64
  %156 = getelementptr inbounds [500 x [10 x i8]], [500 x [10 x i8]]* %9, i64 0, i64 %155
  %157 = getelementptr inbounds [10 x i8], [10 x i8]* %156, i64 0, i64 0
  %158 = call i32 (i8*, ...) @printf(i8* getelementptr inbounds ([4 x i8], [4 x i8]* @.str.3, i64 0, i64 0), i8* %157)
  br label %159

159:                                              ; preds = %153, %146
  br label %160

160:                                              ; preds = %159
  %161 = load i32, i32* %1, align 4
  %162 = add nsw i32 %161, 1
  store i32 %162, i32* %1, align 4
  br label %142

163:                                              ; preds = %142
  br label %164

164:                                              ; preds = %163, %136
  ret void
}